(dp0
S'medial associa.'
p1
(lp2
S'ORBl'
p3
aS'ORBvl'
p4
aS'ACAd'
p5
aS'ACAv'
p6
aS'RSPagl'
p7
aS'RSPd'
p8
aS'RSPv'
p9
aS'PTLp'
p10
asS'lateral'
p11
(lp12
S'VISC'
p13
aS'GU'
p14
aS'AId'
p15
aS'AIp'
p16
aS'AIv'
p17
aS'TEa'
p18
aS'PERI'
p19
aS'ECT'
p20
asS'vis-aud'
p21
(lp22
S'VISal'
p23
aS'VISam'
p24
aS'VISl'
p25
aS'VISp'
p26
aS'VISpm'
p27
aS'AUDd'
p28
aS'AUDp'
p29
aS'AUDv'
p30
aS'VISpl'
p31
aS'AUDpo'
p32
asS'medial'
p33
(lp34
g23
ag24
ag25
ag26
ag27
ag3
ag4
ag5
ag6
ag7
ag8
ag9
ag28
ag29
ag30
ag10
ag31
ag32
asS'somatic'
p35
(lp36
S'MOp'
p37
aS'MOs'
p38
aS'SSp-bfd'
p39
aS'SSp-ll'
p40
aS'SSp-m'
p41
aS'SSp-n'
p42
aS'SSp-tr'
p43
aS'SSp-ul'
p44
aS'SSs'
p45
asS'medial prefrontal'
p46
(lp47
S'ORBm'
p48
aS'ILA'
p49
aS'PL'
p50
as.